; Function Attrs: mustprogress uwtable
define dso_local noundef zeroext i1 @_ZN19cmCTestStartCommand15InitialCheckoutERSoRKNSt7__cxx1112basic_stringIcSt11char_traitsIcESaIcEEE(ptr nocapture noundef nonnull readonly align 8 dereferenceable(42) %0, ptr noundef nonnull align 8 dereferenceable(8) %1, ptr noundef nonnull align 8 dereferenceable(32) %2) local_unnamed_addr #4 align 2 personality ptr @__gxx_personality_v0 {
  %4 = alloca %"class.std::__cxx11::basic_string", align 8
  %5 = alloca %"class.std::allocator.0", align 1
  %6 = alloca %"class.std::__cxx11::basic_string", align 8
  %7 = alloca %"class.std::allocator.0", align 1
  %8 = alloca %class.cmCTestVC, align 8
  %9 = getelementptr inbounds i8, ptr %0, i64 8
  %10 = load ptr, ptr %9, align 8
  call void @_ZNSaIcEC1Ev(ptr noundef nonnull align 1 dereferenceable(1) %5) #13
  %11 = invoke noundef ptr @_ZNSt7__cxx1112basic_stringIcSt11char_traitsIcESaIcEE13_M_local_dataEv(ptr noundef nonnull align 8 dereferenceable(32) %4)
          to label %.noexc unwind label %22

.noexc:                                           ; preds = %3
  invoke void @_ZNSt7__cxx1112basic_stringIcSt11char_traitsIcESaIcEE12_Alloc_hiderC1EPcRKS3_(ptr noundef nonnull align 8 dereferenceable(8) %4, ptr noundef %11, ptr noundef nonnull align 1 dereferenceable(1) %5)
          to label %.noexc17 unwind label %22

.noexc17:                                         ; preds = %.noexc
  invoke void @_ZNSt7__cxx1112basic_stringIcSt11char_traitsIcESaIcEE12_M_constructIPKcEEvT_S8_St20forward_iterator_tag(ptr noundef nonnull align 8 dereferenceable(32) %4, ptr noundef nonnull @.str.27, ptr noundef nonnull getelementptr inbounds ([23 x i8], ptr @.str.27, i64 0, i64 22))
          to label %_ZNSt7__cxx1112basic_stringIcSt11char_traitsIcESaIcEEC2IS3_EEPKcRKS3_.exit unwind label %12

12:                                               ; preds = %.noexc17
  %13 = landingpad { ptr, i32 }
          cleanup
  call void @_ZNSaIcED2Ev(ptr noundef nonnull align 1 dereferenceable(1) %4) #13
  br label %.body

_ZNSt7__cxx1112basic_stringIcSt11char_traitsIcESaIcEEC2IS3_EEPKcRKS3_.exit: ; preds = %.noexc17
  %14 = invoke ptr @_ZNK10cmMakefile13GetDefinitionERKNSt7__cxx1112basic_stringIcSt11char_traitsIcESaIcEEE(ptr noundef nonnull align 8 dereferenceable(3520) %10, ptr noundef nonnull align 8 dereferenceable(32) %4)
          to label %15 unwind label %24

15:                                               ; preds = %_ZNSt7__cxx1112basic_stringIcSt11char_traitsIcESaIcEEC2IS3_EEPKcRKS3_.exit
  call void @_ZNSt7__cxx1112basic_stringIcSt11char_traitsIcESaIcEED1Ev(ptr noundef nonnull align 8 dereferenceable(32) %4) #13
  call void @_ZNSaIcED1Ev(ptr noundef nonnull align 1 dereferenceable(1) %5) #13
  %.not = icmp eq ptr %14, null
  br i1 %.not, label %16, label %.thread

16:                                               ; preds = %15
  %17 = load ptr, ptr %9, align 8
  call void @_ZNSaIcEC1Ev(ptr noundef nonnull align 1 dereferenceable(1) %7) #13
  %18 = invoke noundef ptr @_ZNSt7__cxx1112basic_stringIcSt11char_traitsIcESaIcEE13_M_local_dataEv(ptr noundef nonnull align 8 dereferenceable(32) %6)
          to label %.noexc18 unwind label %26

.noexc18:                                         ; preds = %16
  invoke void @_ZNSt7__cxx1112basic_stringIcSt11char_traitsIcESaIcEE12_Alloc_hiderC1EPcRKS3_(ptr noundef nonnull align 8 dereferenceable(8) %6, ptr noundef %18, ptr noundef nonnull align 1 dereferenceable(1) %7)
          to label %.noexc19 unwind label %26

.noexc19:                                         ; preds = %.noexc18
  invoke void @_ZNSt7__cxx1112basic_stringIcSt11char_traitsIcESaIcEE12_M_constructIPKcEEvT_S8_St20forward_iterator_tag(ptr noundef nonnull align 8 dereferenceable(32) %6, ptr noundef nonnull @.str.28, ptr noundef nonnull getelementptr inbounds ([19 x i8], ptr @.str.28, i64 0, i64 18))
          to label %_ZNSt7__cxx1112basic_stringIcSt11char_traitsIcESaIcEEC2IS3_EEPKcRKS3_.exit22 unwind label %19

19:                                               ; preds = %.noexc19
  %20 = landingpad { ptr, i32 }
          cleanup
  call void @_ZNSaIcED2Ev(ptr noundef nonnull align 1 dereferenceable(1) %6) #13
  br label %.body20

_ZNSt7__cxx1112basic_stringIcSt11char_traitsIcESaIcEEC2IS3_EEPKcRKS3_.exit22: ; preds = %.noexc19
  %21 = invoke ptr @_ZNK10cmMakefile13GetDefinitionERKNSt7__cxx1112basic_stringIcSt11char_traitsIcESaIcEEE(ptr noundef nonnull align 8 dereferenceable(3520) %17, ptr noundef nonnull align 8 dereferenceable(32) %6)
          to label %30 unwind label %28

22:                                               ; preds = %.noexc, %3
  %23 = landingpad { ptr, i32 }
          cleanup
  br label %.body

24:                                               ; preds = %_ZNSt7__cxx1112basic_stringIcSt11char_traitsIcESaIcEEC2IS3_EEPKcRKS3_.exit
  %25 = landingpad { ptr, i32 }
          cleanup
  call void @_ZNSt7__cxx1112basic_stringIcSt11char_traitsIcESaIcEED1Ev(ptr noundef nonnull align 8 dereferenceable(32) %4) #13
  br label %.body

.body:                                            ; preds = %22, %12, %24
  %.pn = phi { ptr, i32 } [ %25, %24 ], [ %23, %22 ], [ %13, %12 ]
  call void @_ZNSaIcED1Ev(ptr noundef nonnull align 1 dereferenceable(1) %5) #13
  br label %40

26:                                               ; preds = %.noexc18, %16
  %27 = landingpad { ptr, i32 }
          cleanup
  br label %.body20

28:                                               ; preds = %_ZNSt7__cxx1112basic_stringIcSt11char_traitsIcESaIcEEC2IS3_EEPKcRKS3_.exit22
  %29 = landingpad { ptr, i32 }
          cleanup
  call void @_ZNSt7__cxx1112basic_stringIcSt11char_traitsIcESaIcEED1Ev(ptr noundef nonnull align 8 dereferenceable(32) %6) #13
  br label %.body20

.body20:                                          ; preds = %26, %19, %28
  %.pn13 = phi { ptr, i32 } [ %29, %28 ], [ %27, %26 ], [ %20, %19 ]
  call void @_ZNSaIcED1Ev(ptr noundef nonnull align 1 dereferenceable(1) %7) #13
  br label %40

30:                                               ; preds = %_ZNSt7__cxx1112basic_stringIcSt11char_traitsIcESaIcEEC2IS3_EEPKcRKS3_.exit22
  call void @_ZNSt7__cxx1112basic_stringIcSt11char_traitsIcESaIcEED1Ev(ptr noundef nonnull align 8 dereferenceable(32) %6) #13
  call void @_ZNSaIcED1Ev(ptr noundef nonnull align 1 dereferenceable(1) %7) #13
  %.not27 = icmp eq ptr %21, null
  br i1 %.not27, label %38, label %.thread

.thread:                                          ; preds = %15, %30
  %.sroa.0.026 = phi ptr [ %21, %30 ], [ %14, %15 ]
  %31 = getelementptr inbounds i8, ptr %0, i64 24
  %32 = load ptr, ptr %31, align 8
  call void @_ZN9cmCTestVCC1EP7cmCTestRSo(ptr noundef nonnull align 8 dereferenceable(388) %8, ptr noundef %32, ptr noundef nonnull align 8 dereferenceable(8) %1)
  invoke void @_ZN9cmCTestVC18SetSourceDirectoryERKNSt7__cxx1112basic_stringIcSt11char_traitsIcESaIcEEE(ptr noundef nonnull align 8 dereferenceable(388) %8, ptr noundef nonnull align 8 dereferenceable(32) %2)
          to label %33 unwind label %35

33:                                               ; preds = %.thread
  %34 = invoke noundef zeroext i1 @_ZN9cmCTestVC15InitialCheckoutERKNSt7__cxx1112basic_stringIcSt11char_traitsIcESaIcEEE(ptr noundef nonnull align 8 dereferenceable(388) %8, ptr noundef nonnull align 8 dereferenceable(32) %.sroa.0.026)
          to label %37 unwind label %35

35:                                               ; preds = %33, %.thread
  %36 = landingpad { ptr, i32 }
          cleanup
  call void @_ZN9cmCTestVCD1Ev(ptr noundef nonnull align 8 dereferenceable(388) %8) #13
  br label %40

37:                                               ; preds = %33
  call void @_ZN9cmCTestVCD1Ev(ptr noundef nonnull align 8 dereferenceable(388) %8) #13
  br i1 %34, label %38, label %39

38:                                               ; preds = %37, %30
  br label %39

39:                                               ; preds = %37, %38
  %.1 = phi i1 [ false, %37 ], [ true, %38 ]
  ret i1 %.1

40:                                               ; preds = %35, %.body20, %.body
  %.pn15 = phi { ptr, i32 } [ %36, %35 ], [ %.pn13, %.body20 ], [ %.pn, %.body ]
  resume { ptr, i32 } %.pn15
}